#include <math.h>
#include <stdio.h>
#include <stdlib.h>
#include <string.h>

int main()
{
 int n,i,j,k;
 int p[10000];
 scanf("%d",&n);
 if (n>=1&&n<=4)
  printf("empty");
 else
 {
  k=0;
  for(i=3;i<=n;i++)
  {
      for(j=2;j<i;j++)              
       {
        if(i%j==0)
        break;
        if(j==i-1)
        {
        p[k]=i;                 
        k++;
        }
       } 
       
  }
  p[k]='\0';
  for(i=0;i<k;i++)
    {
      if(p[i]+2<=n&&p[i]+2==p[i+1])
      printf("%d %d\n",p[i],p[i+1]);            
    }  
 }
 getchar();
 getchar();     
}
