; ModuleID = 'source-C-CXX/59/229.c'
source_filename = "source-C-CXX/59/229.c"
target datalayout = "e-m:e-p270:32:32-p271:32:32-p272:64:64-i64:64-f80:128-n8:16:32:64-S128"
target triple = "x86_64-pc-linux-gnu"

%struct._IO_FILE = type { i32, i8*, i8*, i8*, i8*, i8*, i8*, i8*, i8*, i8*, i8*, i8*, %struct._IO_marker*, %struct._IO_FILE*, i32, i32, i64, i16, i8, [1 x i8], i8*, i64, %struct._IO_codecvt*, %struct._IO_wide_data*, %struct._IO_FILE*, i8*, i64, i32, [20 x i8] }
%struct._IO_marker = type opaque
%struct._IO_codecvt = type opaque
%struct._IO_wide_data = type opaque

@.str = private unnamed_addr constant [3 x i8] c"%d\00", align 1
@.str.1 = private unnamed_addr constant [6 x i8] c"empty\00", align 1
@.str.2 = private unnamed_addr constant [7 x i8] c"%d %d\0A\00", align 1
@stdin = external local_unnamed_addr global %struct._IO_FILE*, align 8

; Function Attrs: nofree nounwind sspstrong uwtable
define dso_local i32 @main() local_unnamed_addr #0 {
  %1 = alloca i32, align 4
  %2 = alloca [10000 x i32], align 16
  %3 = bitcast i32* %1 to i8*
  call void @llvm.lifetime.start.p0i8(i64 4, i8* nonnull %3) #3
  %4 = bitcast [10000 x i32]* %2 to i8*
  call void @llvm.lifetime.start.p0i8(i64 40000, i8* nonnull %4) #3
  %5 = call i32 (i8*, ...) @__isoc99_scanf(i8* getelementptr inbounds ([3 x i8], [3 x i8]* @.str, i64 0, i64 0), i32* nonnull %1)
  %6 = load i32, i32* %1, align 4, !tbaa !5
  %7 = add i32 %6, -1
  %8 = icmp ult i32 %7, 4
  br i1 %8, label %11, label %9

9:                                                ; preds = %0
  %10 = icmp slt i32 %6, 3
  br i1 %10, label %60, label %13

11:                                               ; preds = %0
  %12 = call i32 (i8*, ...) @printf(i8* nonnull dereferenceable(1) getelementptr inbounds ([6 x i8], [6 x i8]* @.str.1, i64 0, i64 0))
  br label %60

13:                                               ; preds = %9, %32
  %14 = phi i32 [ %33, %32 ], [ 0, %9 ]
  %15 = phi i32 [ %34, %32 ], [ 3, %9 ]
  %16 = add nsw i32 %15, -1
  br label %17

17:                                               ; preds = %13, %28
  %18 = phi i32 [ %29, %28 ], [ %14, %13 ]
  %19 = phi i32 [ %30, %28 ], [ 2, %13 ]
  %20 = urem i32 %15, %19
  %21 = icmp eq i32 %20, 0
  br i1 %21, label %32, label %22

22:                                               ; preds = %17
  %23 = icmp eq i32 %19, %16
  br i1 %23, label %24, label %28

24:                                               ; preds = %22
  %25 = sext i32 %18 to i64
  %26 = getelementptr inbounds [10000 x i32], [10000 x i32]* %2, i64 0, i64 %25
  store i32 %15, i32* %26, align 4, !tbaa !5
  %27 = add nsw i32 %18, 1
  br label %28

28:                                               ; preds = %22, %24
  %29 = phi i32 [ %27, %24 ], [ %18, %22 ]
  %30 = add nuw nsw i32 %19, 1
  %31 = icmp eq i32 %30, %15
  br i1 %31, label %32, label %17, !llvm.loop !9

32:                                               ; preds = %17, %28
  %33 = phi i32 [ %18, %17 ], [ %29, %28 ]
  %34 = add nuw i32 %15, 1
  %35 = icmp eq i32 %15, %6
  br i1 %35, label %36, label %13, !llvm.loop !11

36:                                               ; preds = %32
  %37 = sext i32 %33 to i64
  %38 = getelementptr inbounds [10000 x i32], [10000 x i32]* %2, i64 0, i64 %37
  store i32 0, i32* %38, align 4, !tbaa !5
  %39 = icmp sgt i32 %33, 0
  br i1 %39, label %40, label %60

40:                                               ; preds = %36
  %41 = zext i32 %33 to i64
  br label %42

42:                                               ; preds = %58, %40
  %43 = phi i32 [ %6, %40 ], [ %59, %58 ]
  %44 = phi i64 [ 0, %40 ], [ %49, %58 ]
  %45 = getelementptr inbounds [10000 x i32], [10000 x i32]* %2, i64 0, i64 %44
  %46 = load i32, i32* %45, align 4, !tbaa !5
  %47 = add nsw i32 %46, 2
  %48 = icmp sgt i32 %47, %43
  %49 = add nuw nsw i64 %44, 1
  br i1 %48, label %56, label %50

50:                                               ; preds = %42
  %51 = getelementptr inbounds [10000 x i32], [10000 x i32]* %2, i64 0, i64 %49
  %52 = load i32, i32* %51, align 4, !tbaa !5
  %53 = icmp eq i32 %47, %52
  br i1 %53, label %54, label %56

54:                                               ; preds = %50
  %55 = call i32 (i8*, ...) @printf(i8* nonnull dereferenceable(1) getelementptr inbounds ([7 x i8], [7 x i8]* @.str.2, i64 0, i64 0), i32 %46, i32 %47)
  br label %56

56:                                               ; preds = %42, %50, %54
  %57 = icmp eq i64 %49, %41
  br i1 %57, label %60, label %58, !llvm.loop !12

58:                                               ; preds = %56
  %59 = load i32, i32* %1, align 4, !tbaa !5
  br label %42

60:                                               ; preds = %56, %9, %36, %11
  %61 = load %struct._IO_FILE*, %struct._IO_FILE** @stdin, align 8, !tbaa !13
  %62 = call i32 @getc(%struct._IO_FILE* %61) #3
  %63 = load %struct._IO_FILE*, %struct._IO_FILE** @stdin, align 8, !tbaa !13
  %64 = call i32 @getc(%struct._IO_FILE* %63) #3
  call void @llvm.lifetime.end.p0i8(i64 40000, i8* nonnull %4) #3
  call void @llvm.lifetime.end.p0i8(i64 4, i8* nonnull %3) #3
  ret i32 0
}

; Function Attrs: argmemonly mustprogress nofree nosync nounwind willreturn
declare void @llvm.lifetime.start.p0i8(i64 immarg, i8* nocapture) #1

; Function Attrs: nofree nounwind
declare noundef i32 @__isoc99_scanf(i8* nocapture noundef readonly, ...) local_unnamed_addr #2

; Function Attrs: nofree nounwind
declare noundef i32 @printf(i8* nocapture noundef readonly, ...) local_unnamed_addr #2

; Function Attrs: argmemonly mustprogress nofree nosync nounwind willreturn
declare void @llvm.lifetime.end.p0i8(i64 immarg, i8* nocapture) #1

; Function Attrs: nofree nounwind
declare noundef i32 @getc(%struct._IO_FILE* nocapture noundef) local_unnamed_addr #2


!llvm.module.flags = !{!0, !1, !2, !3}
!llvm.ident = !{!4}

!0 = !{i32 1, !"wchar_size", i32 4}
!1 = !{i32 7, !"PIC Level", i32 2}
!2 = !{i32 7, !"PIE Level", i32 2}
!3 = !{i32 7, !"uwtable", i32 1}
!4 = !{!"clang version 13.0.0"}
!5 = !{!6, !6, i64 0}
!6 = !{!"int", !7, i64 0}
!7 = !{!"omnipotent char", !8, i64 0}
!8 = !{!"Simple C/C++ TBAA"}
!9 = distinct !{!9, !10}
!10 = !{!"llvm.loop.mustprogress"}
!11 = distinct !{!11, !10}
!12 = distinct !{!12, !10}
!13 = !{!14, !14, i64 0}
!14 = !{!"any pointer", !7, i64 0}
